target datalayout = "e-m:e-p270:32:32-p271:32:32-p272:64:64-i64:64-i128:128-f80:128-n8:16:32:64-S128"
target triple = "x86_64-pc-linux-gnu"

%struct.ControllerDescription_t = type { i32, i32, ptr }

@.str = private unnamed_addr constant [8 x i8] c"Xbox360\00", align 1
@.str.1 = private unnamed_addr constant [8 x i8] c"XboxOne\00", align 1
@.str.2 = private unnamed_addr constant [4 x i8] c"PS3\00", align 1
@.str.3 = private unnamed_addr constant [4 x i8] c"PS4\00", align 1
@.str.4 = private unnamed_addr constant [4 x i8] c"PS5\00", align 1
@.str.5 = private unnamed_addr constant [10 x i8] c"SwitchPro\00", align 1
@.str.6 = private unnamed_addr constant [6 x i8] c"Steam\00", align 1
@.str.7 = private unnamed_addr constant [23 x i8] c"SDL_GAMECONTROLLERTYPE\00", align 1
@.str.8 = private unnamed_addr constant [15 x i8] c"0x%.4x/0x%.4x=\00", align 1
@.str.9 = private unnamed_addr constant [15 x i8] c"0x%.4X/0x%.4X=\00", align 1
@.str.10 = private unnamed_addr constant [19 x i8] c"k_eControllerType_\00", align 1

; Function Attrs: nounwind uwtable
define internal ptr @GetControllerTypeOverride(i32 noundef %0, i32 noundef %1) #0 {
  %3 = alloca ptr, align 8
  %4 = alloca i32, align 4
  %5 = alloca i32, align 4
  %6 = alloca ptr, align 8
  %7 = alloca [32 x i8], align 16
  %8 = alloca ptr, align 8
  %9 = alloca i32, align 4
  store i32 %0, ptr %4, align 4
  store i32 %1, ptr %5, align 4
  call void @llvm.lifetime.start.p0(i64 8, ptr %6) #3
  %10 = call ptr @SDL_GetHint_REAL(ptr noundef @.str.7)
  store ptr %10, ptr %6, align 8
  %11 = load ptr, ptr %6, align 8
  %12 = icmp ne ptr %11, null
  br i1 %12, label %13, label %51

13:                                               ; preds = %2
  call void @llvm.lifetime.start.p0(i64 32, ptr %7) #3
  call void @llvm.lifetime.start.p0(i64 8, ptr %8) #3
  store ptr null, ptr %8, align 8
  %14 = getelementptr inbounds [32 x i8], ptr %7, i64 0, i64 0
  %15 = load i32, ptr %4, align 4
  %16 = load i32, ptr %5, align 4
  %17 = call i32 (ptr, i64, ptr, ...) @SDL_snprintf_REAL(ptr noundef %14, i64 noundef 32, ptr noundef @.str.8, i32 noundef %15, i32 noundef %16)
  %18 = load ptr, ptr %6, align 8
  %19 = getelementptr inbounds [32 x i8], ptr %7, i64 0, i64 0
  %20 = call ptr @SDL_strstr_REAL(ptr noundef %18, ptr noundef %19)
  store ptr %20, ptr %8, align 8
  %21 = load ptr, ptr %8, align 8
  %22 = icmp ne ptr %21, null
  br i1 %22, label %31, label %23

23:                                               ; preds = %13
  %24 = getelementptr inbounds [32 x i8], ptr %7, i64 0, i64 0
  %25 = load i32, ptr %4, align 4
  %26 = load i32, ptr %5, align 4
  %27 = call i32 (ptr, i64, ptr, ...) @SDL_snprintf_REAL(ptr noundef %24, i64 noundef 32, ptr noundef @.str.9, i32 noundef %25, i32 noundef %26)
  %28 = load ptr, ptr %6, align 8
  %29 = getelementptr inbounds [32 x i8], ptr %7, i64 0, i64 0
  %30 = call ptr @SDL_strstr_REAL(ptr noundef %28, ptr noundef %29)
  store ptr %30, ptr %8, align 8
  br label %31

31:                                               ; preds = %23, %13
  %32 = load ptr, ptr %8, align 8
  %33 = icmp ne ptr %32, null
  br i1 %33, label %34, label %47

34:                                               ; preds = %31
  %35 = getelementptr inbounds [32 x i8], ptr %7, i64 0, i64 0
  %36 = call i64 @SDL_strlen_REAL(ptr noundef %35)
  %37 = load ptr, ptr %8, align 8
  %38 = getelementptr inbounds nuw i8, ptr %37, i64 %36
  store ptr %38, ptr %8, align 8
  %39 = load ptr, ptr %8, align 8
  %40 = call i32 @SDL_strncmp_REAL(ptr noundef %39, ptr noundef @.str.10, i64 noundef 18)
  %41 = icmp eq i32 %40, 0
  br i1 %41, label %42, label %45

42:                                               ; preds = %34
  %43 = load ptr, ptr %8, align 8
  %44 = getelementptr inbounds i8, ptr %43, i64 18
  store ptr %44, ptr %8, align 8
  br label %45

45:                                               ; preds = %42, %34
  %46 = load ptr, ptr %8, align 8
  store ptr %46, ptr %3, align 8
  store i32 1, ptr %9, align 4
  br label %48

47:                                               ; preds = %31
  store i32 0, ptr %9, align 4
  br label %48

48:                                               ; preds = %47, %45
  call void @llvm.lifetime.end.p0(i64 8, ptr %8) #3
  call void @llvm.lifetime.end.p0(i64 32, ptr %7) #3
  %49 = load i32, ptr %9, align 4
  switch i32 %49, label %52 [
    i32 0, label %50
  ]

50:                                               ; preds = %48
  br label %51

51:                                               ; preds = %50, %2
  store ptr null, ptr %3, align 8
  store i32 1, ptr %9, align 4
  br label %52

52:                                               ; preds = %51, %48
  call void @llvm.lifetime.end.p0(i64 8, ptr %6) #3
  %53 = load ptr, ptr %3, align 8
  ret ptr %53
}

; Function Attrs: nounwind uwtable
define hidden i32 @GuessControllerType(i32 noundef %0, i32 noundef %1) #0 {
  %3 = alloca i32, align 4
  %4 = alloca i32, align 4
  %5 = alloca i32, align 4
  %6 = alloca i32, align 4
  %7 = alloca i32, align 4
  %8 = alloca ptr, align 8
  %9 = alloca i32, align 4
  store i32 %0, ptr %4, align 4
  store i32 %1, ptr %5, align 4
  call void @llvm.lifetime.start.p0(i64 4, ptr %6) #3
  %10 = load i32, ptr %4, align 4
  %11 = shl i32 %10, 16
  %12 = load i32, ptr %5, align 4
  %13 = or i32 %11, %12
  store i32 %13, ptr %6, align 4
  call void @llvm.lifetime.start.p0(i64 4, ptr %7) #3
  call void @llvm.lifetime.start.p0(i64 8, ptr %8) #3
  %14 = load i32, ptr %4, align 4
  %15 = load i32, ptr %5, align 4
  %16 = call ptr @GetControllerTypeOverride(i32 noundef %14, i32 noundef %15)
  store ptr %16, ptr %8, align 8
  %17 = load ptr, ptr %8, align 8
  %18 = icmp ne ptr %17, null
  br i1 %18, label %19, label %55

19:                                               ; preds = %2
  %20 = load ptr, ptr %8, align 8
  %21 = call i32 @SDL_strncasecmp_REAL(ptr noundef %20, ptr noundef @.str, i64 noundef 7)
  %22 = icmp eq i32 %21, 0
  br i1 %22, label %23, label %24

23:                                               ; preds = %19
  store i32 31, ptr %3, align 4
  store i32 1, ptr %9, align 4
  br label %79

24:                                               ; preds = %19
  %25 = load ptr, ptr %8, align 8
  %26 = call i32 @SDL_strncasecmp_REAL(ptr noundef %25, ptr noundef @.str.1, i64 noundef 7)
  %27 = icmp eq i32 %26, 0
  br i1 %27, label %28, label %29

28:                                               ; preds = %24
  store i32 32, ptr %3, align 4
  store i32 1, ptr %9, align 4
  br label %79

29:                                               ; preds = %24
  %30 = load ptr, ptr %8, align 8
  %31 = call i32 @SDL_strncasecmp_REAL(ptr noundef %30, ptr noundef @.str.2, i64 noundef 3)
  %32 = icmp eq i32 %31, 0
  br i1 %32, label %33, label %34

33:                                               ; preds = %29
  store i32 33, ptr %3, align 4
  store i32 1, ptr %9, align 4
  br label %79

34:                                               ; preds = %29
  %35 = load ptr, ptr %8, align 8
  %36 = call i32 @SDL_strncasecmp_REAL(ptr noundef %35, ptr noundef @.str.3, i64 noundef 3)
  %37 = icmp eq i32 %36, 0
  br i1 %37, label %38, label %39

38:                                               ; preds = %34
  store i32 34, ptr %3, align 4
  store i32 1, ptr %9, align 4
  br label %79

39:                                               ; preds = %34
  %40 = load ptr, ptr %8, align 8
  %41 = call i32 @SDL_strncasecmp_REAL(ptr noundef %40, ptr noundef @.str.4, i64 noundef 3)
  %42 = icmp eq i32 %41, 0
  br i1 %42, label %43, label %44

43:                                               ; preds = %39
  store i32 45, ptr %3, align 4
  store i32 1, ptr %9, align 4
  br label %79

44:                                               ; preds = %39
  %45 = load ptr, ptr %8, align 8
  %46 = call i32 @SDL_strncasecmp_REAL(ptr noundef %45, ptr noundef @.str.5, i64 noundef 9)
  %47 = icmp eq i32 %46, 0
  br i1 %47, label %48, label %49

48:                                               ; preds = %44
  store i32 38, ptr %3, align 4
  store i32 1, ptr %9, align 4
  br label %79

49:                                               ; preds = %44
  %50 = load ptr, ptr %8, align 8
  %51 = call i32 @SDL_strncasecmp_REAL(ptr noundef %50, ptr noundef @.str.6, i64 noundef 5)
  %52 = icmp eq i32 %51, 0
  br i1 %52, label %53, label %54

53:                                               ; preds = %49
  store i32 2, ptr %3, align 4
  store i32 1, ptr %9, align 4
  br label %79

54:                                               ; preds = %49
  store i32 30, ptr %3, align 4
  store i32 1, ptr %9, align 4
  br label %79

55:                                               ; preds = %2
  store i32 0, ptr %7, align 4
  br label %56

56:                                               ; preds = %75, %55
  %57 = load i32, ptr %7, align 4
  %58 = sext i32 %57 to i64
  %59 = icmp ult i64 %58, 532
  br i1 %59, label %60, label %78

60:                                               ; preds = %56
  %61 = load i32, ptr %6, align 4
  %62 = load i32, ptr %7, align 4
  %63 = sext i32 %62 to i64
  %64 = getelementptr inbounds [532 x %struct.ControllerDescription_t], ptr @arrControllers, i64 0, i64 %63
  %65 = getelementptr inbounds nuw %struct.ControllerDescription_t, ptr %64, i32 0, i32 0
  %66 = load i32, ptr %65, align 16
  %67 = icmp eq i32 %61, %66
  br i1 %67, label %68, label %74

68:                                               ; preds = %60
  %69 = load i32, ptr %7, align 4
  %70 = sext i32 %69 to i64
  %71 = getelementptr inbounds [532 x %struct.ControllerDescription_t], ptr @arrControllers, i64 0, i64 %70
  %72 = getelementptr inbounds nuw %struct.ControllerDescription_t, ptr %71, i32 0, i32 1
  %73 = load i32, ptr %72, align 4
  store i32 %73, ptr %3, align 4
  store i32 1, ptr %9, align 4
  br label %79

74:                                               ; preds = %60
  br label %75

75:                                               ; preds = %74
  %76 = load i32, ptr %7, align 4
  %77 = add nsw i32 %76, 1
  store i32 %77, ptr %7, align 4
  br label %56, !llvm.loop !3

78:                                               ; preds = %56
  store i32 30, ptr %3, align 4
  store i32 1, ptr %9, align 4
  br label %79

79:                                               ; preds = %78, %68, %54, %53, %48, %43, %38, %33, %28, %23
  call void @llvm.lifetime.end.p0(i64 8, ptr %8) #3
  call void @llvm.lifetime.end.p0(i64 4, ptr %7) #3
  call void @llvm.lifetime.end.p0(i64 4, ptr %6) #3
  %80 = load i32, ptr %3, align 4
  ret i32 %80
}