; Function Attrs: nounwind uwtable
define hidden i32 @GuessControllerType(i32 noundef %0, i32 noundef %1) local_unnamed_addr #0 {
  %3 = alloca [32 x i8], align 16
  %4 = shl i32 %0, 16
  %5 = or i32 %4, %1
  %6 = tail call ptr @SDL_GetHint_REAL(ptr noundef nonnull @.str.7) #4
  %.not.i = icmp eq ptr %6, null
  br i1 %.not.i, label %.preheader.preheader, label %7

7:                                                ; preds = %2
  call void @llvm.lifetime.start.p0(i64 32, ptr nonnull %3) #4
  %8 = call i32 (ptr, i64, ptr, ...) @SDL_snprintf_REAL(ptr noundef nonnull %3, i64 noundef 32, ptr noundef nonnull @.str.8, i32 noundef %0, i32 noundef %1) #4
  %9 = call ptr @SDL_strstr_REAL(ptr noundef nonnull %6, ptr noundef nonnull %3) #4
  %.not19.i = icmp eq ptr %9, null
  br i1 %.not19.i, label %10, label %13

10:                                               ; preds = %7
  %11 = call i32 (ptr, i64, ptr, ...) @SDL_snprintf_REAL(ptr noundef nonnull %3, i64 noundef 32, ptr noundef nonnull @.str.9, i32 noundef %0, i32 noundef %1) #4
  %12 = call ptr @SDL_strstr_REAL(ptr noundef nonnull %6, ptr noundef nonnull %3) #4
  %.not20.i = icmp eq ptr %12, null
  br i1 %.not20.i, label %GetControllerTypeOverride.exit.thread25, label %13

GetControllerTypeOverride.exit.thread25:          ; preds = %10
  call void @llvm.lifetime.end.p0(i64 32, ptr nonnull %3) #4
  br label %.preheader.preheader

.preheader.preheader:                             ; preds = %2, %GetControllerTypeOverride.exit.thread25
  br label %.preheader

13:                                               ; preds = %10, %7
  %.01423.i = phi ptr [ %12, %10 ], [ %9, %7 ]
  %14 = call i64 @SDL_strlen_REAL(ptr noundef nonnull %3) #4
  %15 = getelementptr inbounds nuw i8, ptr %.01423.i, i64 %14
  %16 = call i32 @SDL_strncmp_REAL(ptr noundef nonnull %15, ptr noundef nonnull @.str.10, i64 noundef 18) #4
  %17 = icmp eq i32 %16, 0
  %spec.select.idx.i = select i1 %17, i64 18, i64 0
  %spec.select.i = getelementptr inbounds nuw i8, ptr %15, i64 %spec.select.idx.i
  call void @llvm.lifetime.end.p0(i64 32, ptr nonnull %3) #4
  %18 = call i32 @SDL_strncasecmp_REAL(ptr noundef nonnull %spec.select.i, ptr noundef nonnull @.str, i64 noundef 7) #4
  %19 = icmp eq i32 %18, 0
  br i1 %19, label %.loopexit, label %20

20:                                               ; preds = %13
  %21 = call i32 @SDL_strncasecmp_REAL(ptr noundef nonnull %spec.select.i, ptr noundef nonnull @.str.1, i64 noundef 7) #4
  %22 = icmp eq i32 %21, 0
  br i1 %22, label %.loopexit, label %23

23:                                               ; preds = %20
  %24 = call i32 @SDL_strncasecmp_REAL(ptr noundef nonnull %spec.select.i, ptr noundef nonnull @.str.2, i64 noundef 3) #4
  %25 = icmp eq i32 %24, 0
  br i1 %25, label %.loopexit, label %26

26:                                               ; preds = %23
  %27 = call i32 @SDL_strncasecmp_REAL(ptr noundef nonnull %spec.select.i, ptr noundef nonnull @.str.3, i64 noundef 3) #4
  %28 = icmp eq i32 %27, 0
  br i1 %28, label %.loopexit, label %29

29:                                               ; preds = %26
  %30 = call i32 @SDL_strncasecmp_REAL(ptr noundef nonnull %spec.select.i, ptr noundef nonnull @.str.4, i64 noundef 3) #4
  %31 = icmp eq i32 %30, 0
  br i1 %31, label %.loopexit, label %32

32:                                               ; preds = %29
  %33 = call i32 @SDL_strncasecmp_REAL(ptr noundef nonnull %spec.select.i, ptr noundef nonnull @.str.5, i64 noundef 9) #4
  %34 = icmp eq i32 %33, 0
  br i1 %34, label %.loopexit, label %35

35:                                               ; preds = %32
  %36 = call i32 @SDL_strncasecmp_REAL(ptr noundef nonnull %spec.select.i, ptr noundef nonnull @.str.6, i64 noundef 5) #4
  %37 = icmp eq i32 %36, 0
  %. = select i1 %37, i32 2, i32 30
  br label %.loopexit

38:                                               ; preds = %.preheader
  %indvars.iv.next = add nuw nsw i64 %indvars.iv, 1
  %exitcond.not = icmp eq i64 %indvars.iv.next, 532
  br i1 %exitcond.not, label %.loopexit, label %.preheader, !llvm.loop !3

.preheader:                                       ; preds = %.preheader.preheader, %38
  %indvars.iv = phi i64 [ %indvars.iv.next, %38 ], [ 0, %.preheader.preheader ]
  %39 = getelementptr inbounds nuw [532 x %struct.ControllerDescription_t], ptr @arrControllers, i64 0, i64 %indvars.iv
  %40 = load i32, ptr %39, align 16
  %41 = icmp eq i32 %5, %40
  br i1 %41, label %42, label %38

42:                                               ; preds = %.preheader
  %43 = getelementptr inbounds nuw i8, ptr %39, i64 4
  %44 = load i32, ptr %43, align 4
  br label %.loopexit

.loopexit:                                        ; preds = %38, %35, %32, %29, %26, %23, %20, %13, %42
  %.0 = phi i32 [ %44, %42 ], [ 31, %13 ], [ 32, %20 ], [ 33, %23 ], [ 34, %26 ], [ 45, %29 ], [ 38, %32 ], [ %., %35 ], [ 30, %38 ]
  ret i32 %.0
}